; Function Attrs: mustprogress nofree norecurse nosync nounwind willreturn memory(read, inaccessiblemem: none) uwtable
define dso_local noundef zeroext i1 @_ZNK3tev11ImageViewer11playingBackEv(ptr nocapture noundef nonnull readonly align 16 dereferenceable(972) %0) local_unnamed_addr #10 align 2 {
  %2 = getelementptr inbounds i8, ptr %0, i64 824
  %3 = load ptr, ptr %2, align 8
  %4 = getelementptr inbounds i8, ptr %3, i64 168
  %5 = load i8, ptr %4, align 8
  %6 = and i8 %5, 1
  %7 = icmp ne i8 %6, 0
  ret i1 %7
}